target datalayout = "e-m:e-p270:32:32-p271:32:32-p272:64:64-i64:64-i128:128-f80:128-n8:16:32:64-S128"
target triple = "x86_64-pc-linux-gnu"

%class.btVector3 = type { [4 x float] }
%class.btQuaternion = type { %class.btQuadWord }
%class.btQuadWord = type { [4 x float] }

; Function Attrs: inlinehint mustprogress nounwind uwtable
define linkonce_odr dso_local noundef float @_ZNK9btVector33dotERKS_(ptr noundef nonnull align 4 dereferenceable(16) %0, ptr noundef nonnull align 4 dereferenceable(16) %1) #5 comdat align 2 {
  %3 = alloca ptr, align 8
  %4 = alloca ptr, align 8
  store ptr %0, ptr %3, align 8, !tbaa !36
  store ptr %1, ptr %4, align 8, !tbaa !36
  %5 = load ptr, ptr %3, align 8
  %6 = getelementptr inbounds nuw %class.btVector3, ptr %5, i32 0, i32 0
  %7 = getelementptr inbounds [4 x float], ptr %6, i64 0, i64 0
  %8 = load float, ptr %7, align 4, !tbaa !50
  %9 = load ptr, ptr %4, align 8, !tbaa !36
  %10 = getelementptr inbounds nuw %class.btVector3, ptr %9, i32 0, i32 0
  %11 = getelementptr inbounds [4 x float], ptr %10, i64 0, i64 0
  %12 = load float, ptr %11, align 4, !tbaa !50
  %13 = getelementptr inbounds nuw %class.btVector3, ptr %5, i32 0, i32 0
  %14 = getelementptr inbounds [4 x float], ptr %13, i64 0, i64 1
  %15 = load float, ptr %14, align 4, !tbaa !50
  %16 = load ptr, ptr %4, align 8, !tbaa !36
  %17 = getelementptr inbounds nuw %class.btVector3, ptr %16, i32 0, i32 0
  %18 = getelementptr inbounds [4 x float], ptr %17, i64 0, i64 1
  %19 = load float, ptr %18, align 4, !tbaa !50
  %20 = fmul float %15, %19
  %21 = call float @llvm.fmuladd.f32(float %8, float %12, float %20)
  %22 = getelementptr inbounds nuw %class.btVector3, ptr %5, i32 0, i32 0
  %23 = getelementptr inbounds [4 x float], ptr %22, i64 0, i64 2
  %24 = load float, ptr %23, align 4, !tbaa !50
  %25 = load ptr, ptr %4, align 8, !tbaa !36
  %26 = getelementptr inbounds nuw %class.btVector3, ptr %25, i32 0, i32 0
  %27 = getelementptr inbounds [4 x float], ptr %26, i64 0, i64 2
  %28 = load float, ptr %27, align 4, !tbaa !50
  %29 = call float @llvm.fmuladd.f32(float %24, float %28, float %21)
  ret float %29
}

; Function Attrs: inlinehint mustprogress nounwind uwtable
define linkonce_odr dso_local noundef nonnull align 4 dereferenceable(16) ptr @_ZN9btVector3mLERKf(ptr noundef nonnull align 4 dereferenceable(16) %0, ptr noundef nonnull align 4 dereferenceable(4) %1) #5 comdat align 2 {
  %3 = alloca ptr, align 8
  %4 = alloca ptr, align 8
  store ptr %0, ptr %3, align 8, !tbaa !36
  store ptr %1, ptr %4, align 8, !tbaa !51
  %5 = load ptr, ptr %3, align 8
  %6 = load ptr, ptr %4, align 8, !tbaa !51
  %7 = load float, ptr %6, align 4, !tbaa !50
  %8 = getelementptr inbounds nuw %class.btVector3, ptr %5, i32 0, i32 0
  %9 = getelementptr inbounds [4 x float], ptr %8, i64 0, i64 0
  %10 = load float, ptr %9, align 4, !tbaa !50
  %11 = fmul float %10, %7
  store float %11, ptr %9, align 4, !tbaa !50
  %12 = load ptr, ptr %4, align 8, !tbaa !51
  %13 = load float, ptr %12, align 4, !tbaa !50
  %14 = getelementptr inbounds nuw %class.btVector3, ptr %5, i32 0, i32 0
  %15 = getelementptr inbounds [4 x float], ptr %14, i64 0, i64 1
  %16 = load float, ptr %15, align 4, !tbaa !50
  %17 = fmul float %16, %13
  store float %17, ptr %15, align 4, !tbaa !50
  %18 = load ptr, ptr %4, align 8, !tbaa !51
  %19 = load float, ptr %18, align 4, !tbaa !50
  %20 = getelementptr inbounds nuw %class.btVector3, ptr %5, i32 0, i32 0
  %21 = getelementptr inbounds [4 x float], ptr %20, i64 0, i64 2
  %22 = load float, ptr %21, align 4, !tbaa !50
  %23 = fmul float %22, %19
  store float %23, ptr %21, align 4, !tbaa !50
  ret ptr %5
}

; Function Attrs: inlinehint mustprogress nounwind uwtable
define linkonce_odr dso_local noundef float @_Z6btSqrtf(float noundef %0) #5 comdat {
  %2 = alloca float, align 4
  store float %0, ptr %2, align 4, !tbaa !50
  %3 = load float, ptr %2, align 4, !tbaa !50
  %4 = call float @sqrtf(float noundef %3) #13, !tbaa !9
  ret float %4
}

; Function Attrs: inlinehint mustprogress nounwind uwtable
define linkonce_odr dso_local noundef float @_ZNK9btVector37length2Ev(ptr noundef nonnull align 4 dereferenceable(16) %0) #5 comdat align 2 {
  %2 = alloca ptr, align 8
  store ptr %0, ptr %2, align 8, !tbaa !36
  %3 = load ptr, ptr %2, align 8
  %4 = call noundef float @_ZNK9btVector33dotERKS_(ptr noundef nonnull align 4 dereferenceable(16) %3, ptr noundef nonnull align 4 dereferenceable(16) %3)
  ret float %4
}

; Function Attrs: inlinehint mustprogress nounwind uwtable
define linkonce_odr dso_local void @_ZN10btQuadWordC2ERKfS1_S1_S1_(ptr noundef nonnull align 4 dereferenceable(16) %0, ptr noundef nonnull align 4 dereferenceable(4) %1, ptr noundef nonnull align 4 dereferenceable(4) %2, ptr noundef nonnull align 4 dereferenceable(4) %3, ptr noundef nonnull align 4 dereferenceable(4) %4) unnamed_addr #5 comdat align 2 {
  %6 = alloca ptr, align 8
  %7 = alloca ptr, align 8
  %8 = alloca ptr, align 8
  %9 = alloca ptr, align 8
  %10 = alloca ptr, align 8
  store ptr %0, ptr %6, align 8, !tbaa !119
  store ptr %1, ptr %7, align 8, !tbaa !51
  store ptr %2, ptr %8, align 8, !tbaa !51
  store ptr %3, ptr %9, align 8, !tbaa !51
  store ptr %4, ptr %10, align 8, !tbaa !51
  %11 = load ptr, ptr %6, align 8
  %12 = load ptr, ptr %7, align 8, !tbaa !51
  %13 = load float, ptr %12, align 4, !tbaa !50
  %14 = getelementptr inbounds nuw %class.btQuadWord, ptr %11, i32 0, i32 0
  %15 = getelementptr inbounds [4 x float], ptr %14, i64 0, i64 0
  store float %13, ptr %15, align 4, !tbaa !50
  %16 = load ptr, ptr %8, align 8, !tbaa !51
  %17 = load float, ptr %16, align 4, !tbaa !50
  %18 = getelementptr inbounds nuw %class.btQuadWord, ptr %11, i32 0, i32 0
  %19 = getelementptr inbounds [4 x float], ptr %18, i64 0, i64 1
  store float %17, ptr %19, align 4, !tbaa !50
  %20 = load ptr, ptr %9, align 8, !tbaa !51
  %21 = load float, ptr %20, align 4, !tbaa !50
  %22 = getelementptr inbounds nuw %class.btQuadWord, ptr %11, i32 0, i32 0
  %23 = getelementptr inbounds [4 x float], ptr %22, i64 0, i64 2
  store float %21, ptr %23, align 4, !tbaa !50
  %24 = load ptr, ptr %10, align 8, !tbaa !51
  %25 = load float, ptr %24, align 4, !tbaa !50
  %26 = getelementptr inbounds nuw %class.btQuadWord, ptr %11, i32 0, i32 0
  %27 = getelementptr inbounds [4 x float], ptr %26, i64 0, i64 3
  store float %25, ptr %27, align 4, !tbaa !50
  ret void
}

; Function Attrs: inlinehint mustprogress uwtable
define linkonce_odr dso_local noundef nonnull align 4 dereferenceable(16) ptr @_ZN9btVector3dVERKf(ptr noundef nonnull align 4 dereferenceable(16) %0, ptr noundef nonnull align 4 dereferenceable(4) %1) #4 comdat align 2 {
  %3 = alloca ptr, align 8
  %4 = alloca ptr, align 8
  %5 = alloca float, align 4
  store ptr %0, ptr %3, align 8, !tbaa !36
  store ptr %1, ptr %4, align 8, !tbaa !51
  %6 = load ptr, ptr %3, align 8
  call void @llvm.lifetime.start.p0(i64 4, ptr %5) #13
  %7 = load ptr, ptr %4, align 8, !tbaa !51
  %8 = load float, ptr %7, align 4, !tbaa !50
  %9 = fdiv float 1.000000e+00, %8
  store float %9, ptr %5, align 4, !tbaa !50
  %10 = call noundef nonnull align 4 dereferenceable(16) ptr @_ZN9btVector3mLERKf(ptr noundef nonnull align 4 dereferenceable(16) %6, ptr noundef nonnull align 4 dereferenceable(4) %5)
  call void @llvm.lifetime.end.p0(i64 4, ptr %5) #13
  ret ptr %10
}

; Function Attrs: inlinehint mustprogress nounwind uwtable
define linkonce_odr dso_local noundef float @_ZNK9btVector36lengthEv(ptr noundef nonnull align 4 dereferenceable(16) %0) #5 comdat align 2 {
  %2 = alloca ptr, align 8
  store ptr %0, ptr %2, align 8, !tbaa !36
  %3 = load ptr, ptr %2, align 8
  %4 = call noundef float @_ZNK9btVector37length2Ev(ptr noundef nonnull align 4 dereferenceable(16) %3)
  %5 = call noundef float @_Z6btSqrtf(float noundef %4)
  ret float %5
}

; Function Attrs: mustprogress uwtable
define linkonce_odr dso_local void @_ZN12btQuaternionC2ERKfS1_S1_S1_(ptr noundef nonnull align 4 dereferenceable(16) %0, ptr noundef nonnull align 4 dereferenceable(4) %1, ptr noundef nonnull align 4 dereferenceable(4) %2, ptr noundef nonnull align 4 dereferenceable(4) %3, ptr noundef nonnull align 4 dereferenceable(4) %4) unnamed_addr #2 comdat align 2 {
  %6 = alloca ptr, align 8
  %7 = alloca ptr, align 8
  %8 = alloca ptr, align 8
  %9 = alloca ptr, align 8
  %10 = alloca ptr, align 8
  store ptr %0, ptr %6, align 8, !tbaa !38
  store ptr %1, ptr %7, align 8, !tbaa !51
  store ptr %2, ptr %8, align 8, !tbaa !51
  store ptr %3, ptr %9, align 8, !tbaa !51
  store ptr %4, ptr %10, align 8, !tbaa !51
  %11 = load ptr, ptr %6, align 8
  %12 = load ptr, ptr %7, align 8, !tbaa !51
  %13 = load ptr, ptr %8, align 8, !tbaa !51
  %14 = load ptr, ptr %9, align 8, !tbaa !51
  %15 = load ptr, ptr %10, align 8, !tbaa !51
  call void @_ZN10btQuadWordC2ERKfS1_S1_S1_(ptr noundef nonnull align 4 dereferenceable(16) %11, ptr noundef nonnull align 4 dereferenceable(4) %12, ptr noundef nonnull align 4 dereferenceable(4) %13, ptr noundef nonnull align 4 dereferenceable(4) %14, ptr noundef nonnull align 4 dereferenceable(4) %15)
  ret void
}

; Function Attrs: inlinehint mustprogress nounwind uwtable
define linkonce_odr dso_local noundef float @_Z6btAcosf(float noundef %0) #5 comdat {
  %2 = alloca float, align 4
  store float %0, ptr %2, align 4, !tbaa !50
  %3 = load float, ptr %2, align 4, !tbaa !50
  %4 = fcmp olt float %3, -1.000000e+00
  br i1 %4, label %5, label %6

5:                                                ; preds = %1
  store float -1.000000e+00, ptr %2, align 4, !tbaa !50
  br label %6

6:                                                ; preds = %5, %1
  %7 = load float, ptr %2, align 4, !tbaa !50
  %8 = fcmp ogt float %7, 1.000000e+00
  br i1 %8, label %9, label %10

9:                                                ; preds = %6
  store float 1.000000e+00, ptr %2, align 4, !tbaa !50
  br label %10

10:                                               ; preds = %9, %6
  %11 = load float, ptr %2, align 4, !tbaa !50
  %12 = call float @acosf(float noundef %11) #13, !tbaa !9
  ret float %12
}

; Function Attrs: inlinehint mustprogress uwtable
define linkonce_odr dso_local noundef nonnull align 4 dereferenceable(16) ptr @_ZN9btVector39normalizeEv(ptr noundef nonnull align 4 dereferenceable(16) %0) #4 comdat align 2 {
  %2 = alloca ptr, align 8
  %3 = alloca float, align 4
  store ptr %0, ptr %2, align 8, !tbaa !36
  %4 = load ptr, ptr %2, align 8
  call void @llvm.lifetime.start.p0(i64 4, ptr %3) #13
  %5 = call noundef float @_ZNK9btVector36lengthEv(ptr noundef nonnull align 4 dereferenceable(16) %4)
  store float %5, ptr %3, align 4, !tbaa !50
  %6 = call noundef nonnull align 4 dereferenceable(16) ptr @_ZN9btVector3dVERKf(ptr noundef nonnull align 4 dereferenceable(16) %4, ptr noundef nonnull align 4 dereferenceable(4) %3)
  call void @llvm.lifetime.end.p0(i64 4, ptr %3) #13
  ret ptr %6
}

; Function Attrs: inlinehint mustprogress nounwind uwtable
define linkonce_odr dso_local void @_ZN9btVector3C2ERKfS1_S1_(ptr noundef nonnull align 4 dereferenceable(16) %0, ptr noundef nonnull align 4 dereferenceable(4) %1, ptr noundef nonnull align 4 dereferenceable(4) %2, ptr noundef nonnull align 4 dereferenceable(4) %3) unnamed_addr #5 comdat align 2 {
  %5 = alloca ptr, align 8
  %6 = alloca ptr, align 8
  %7 = alloca ptr, align 8
  %8 = alloca ptr, align 8
  store ptr %0, ptr %5, align 8, !tbaa !36
  store ptr %1, ptr %6, align 8, !tbaa !51
  store ptr %2, ptr %7, align 8, !tbaa !51
  store ptr %3, ptr %8, align 8, !tbaa !51
  %9 = load ptr, ptr %5, align 8
  %10 = load ptr, ptr %6, align 8, !tbaa !51
  %11 = load float, ptr %10, align 4, !tbaa !50
  %12 = getelementptr inbounds nuw %class.btVector3, ptr %9, i32 0, i32 0
  %13 = getelementptr inbounds [4 x float], ptr %12, i64 0, i64 0
  store float %11, ptr %13, align 4, !tbaa !50
  %14 = load ptr, ptr %7, align 8, !tbaa !51
  %15 = load float, ptr %14, align 4, !tbaa !50
  %16 = getelementptr inbounds nuw %class.btVector3, ptr %9, i32 0, i32 0
  %17 = getelementptr inbounds [4 x float], ptr %16, i64 0, i64 1
  store float %15, ptr %17, align 4, !tbaa !50
  %18 = load ptr, ptr %8, align 8, !tbaa !51
  %19 = load float, ptr %18, align 4, !tbaa !50
  %20 = getelementptr inbounds nuw %class.btVector3, ptr %9, i32 0, i32 0
  %21 = getelementptr inbounds [4 x float], ptr %20, i64 0, i64 2
  store float %19, ptr %21, align 4, !tbaa !50
  %22 = getelementptr inbounds nuw %class.btVector3, ptr %9, i32 0, i32 0
  %23 = getelementptr inbounds [4 x float], ptr %22, i64 0, i64 3
  store float 0.000000e+00, ptr %23, align 4, !tbaa !50
  ret void
}

; Function Attrs: inlinehint mustprogress nounwind uwtable
define linkonce_odr dso_local noundef nonnull align 4 dereferenceable(4) ptr @_ZNK10btQuadWord1zEv(ptr noundef nonnull align 4 dereferenceable(16) %0) #5 comdat align 2 {
  %2 = alloca ptr, align 8
  store ptr %0, ptr %2, align 8, !tbaa !119
  %3 = load ptr, ptr %2, align 8
  %4 = getelementptr inbounds nuw %class.btQuadWord, ptr %3, i32 0, i32 0
  %5 = getelementptr inbounds [4 x float], ptr %4, i64 0, i64 2
  ret ptr %5
}

; Function Attrs: inlinehint mustprogress nounwind uwtable
define linkonce_odr dso_local noundef nonnull align 4 dereferenceable(4) ptr @_ZNK10btQuadWord1yEv(ptr noundef nonnull align 4 dereferenceable(16) %0) #5 comdat align 2 {
  %2 = alloca ptr, align 8
  store ptr %0, ptr %2, align 8, !tbaa !119
  %3 = load ptr, ptr %2, align 8
  %4 = getelementptr inbounds nuw %class.btQuadWord, ptr %3, i32 0, i32 0
  %5 = getelementptr inbounds [4 x float], ptr %4, i64 0, i64 1
  ret ptr %5
}

; Function Attrs: inlinehint mustprogress nounwind uwtable
define linkonce_odr dso_local noundef nonnull align 4 dereferenceable(4) ptr @_ZNK10btQuadWord1xEv(ptr noundef nonnull align 4 dereferenceable(16) %0) #5 comdat align 2 {
  %2 = alloca ptr, align 8
  store ptr %0, ptr %2, align 8, !tbaa !119
  %3 = load ptr, ptr %2, align 8
  %4 = getelementptr inbounds nuw %class.btQuadWord, ptr %3, i32 0, i32 0
  %5 = getelementptr inbounds [4 x float], ptr %4, i64 0, i64 0
  ret ptr %5
}

; Function Attrs: inlinehint mustprogress uwtable
define linkonce_odr dso_local { <2 x float>, <2 x float> } @_ZNK12btQuaternionngEv(ptr noundef nonnull align 4 dereferenceable(16) %0) #4 comdat align 2 {
  %2 = alloca %class.btQuaternion, align 4
  %3 = alloca ptr, align 8
  %4 = alloca ptr, align 8
  %5 = alloca float, align 4
  %6 = alloca float, align 4
  %7 = alloca float, align 4
  %8 = alloca float, align 4
  store ptr %0, ptr %3, align 8, !tbaa !38
  %9 = load ptr, ptr %3, align 8
  call void @llvm.lifetime.start.p0(i64 8, ptr %4) #13
  store ptr %9, ptr %4, align 8, !tbaa !38
  call void @llvm.lifetime.start.p0(i64 4, ptr %5) #13
  %10 = load ptr, ptr %4, align 8, !tbaa !38
  %11 = call noundef nonnull align 4 dereferenceable(4) ptr @_ZNK10btQuadWord1xEv(ptr noundef nonnull align 4 dereferenceable(16) %10)
  %12 = load float, ptr %11, align 4, !tbaa !50
  %13 = fneg float %12
  store float %13, ptr %5, align 4, !tbaa !50
  call void @llvm.lifetime.start.p0(i64 4, ptr %6) #13
  %14 = load ptr, ptr %4, align 8, !tbaa !38
  %15 = call noundef nonnull align 4 dereferenceable(4) ptr @_ZNK10btQuadWord1yEv(ptr noundef nonnull align 4 dereferenceable(16) %14)
  %16 = load float, ptr %15, align 4, !tbaa !50
  %17 = fneg float %16
  store float %17, ptr %6, align 4, !tbaa !50
  call void @llvm.lifetime.start.p0(i64 4, ptr %7) #13
  %18 = load ptr, ptr %4, align 8, !tbaa !38
  %19 = call noundef nonnull align 4 dereferenceable(4) ptr @_ZNK10btQuadWord1zEv(ptr noundef nonnull align 4 dereferenceable(16) %18)
  %20 = load float, ptr %19, align 4, !tbaa !50
  %21 = fneg float %20
  store float %21, ptr %7, align 4, !tbaa !50
  call void @llvm.lifetime.start.p0(i64 4, ptr %8) #13
  %22 = load ptr, ptr %4, align 8, !tbaa !38
  %23 = getelementptr inbounds nuw %class.btQuadWord, ptr %22, i32 0, i32 0
  %24 = getelementptr inbounds [4 x float], ptr %23, i64 0, i64 3
  %25 = load float, ptr %24, align 4, !tbaa !50
  %26 = fneg float %25
  store float %26, ptr %8, align 4, !tbaa !50
  call void @_ZN12btQuaternionC2ERKfS1_S1_S1_(ptr noundef nonnull align 4 dereferenceable(16) %2, ptr noundef nonnull align 4 dereferenceable(4) %5, ptr noundef nonnull align 4 dereferenceable(4) %6, ptr noundef nonnull align 4 dereferenceable(4) %7, ptr noundef nonnull align 4 dereferenceable(4) %8)
  call void @llvm.lifetime.end.p0(i64 4, ptr %8) #13
  call void @llvm.lifetime.end.p0(i64 4, ptr %7) #13
  call void @llvm.lifetime.end.p0(i64 4, ptr %6) #13
  call void @llvm.lifetime.end.p0(i64 4, ptr %5) #13
  call void @llvm.lifetime.end.p0(i64 8, ptr %4) #13
  %27 = getelementptr inbounds nuw %class.btQuaternion, ptr %2, i32 0, i32 0
  %28 = getelementptr inbounds nuw %class.btQuadWord, ptr %27, i32 0, i32 0
  %29 = load { <2 x float>, <2 x float> }, ptr %28, align 4
  ret { <2 x float>, <2 x float> } %29
}

; Function Attrs: mustprogress uwtable
define linkonce_odr dso_local noundef float @_ZNK12btQuaternion8getAngleEv(ptr noundef nonnull align 4 dereferenceable(16) %0) #2 comdat align 2 {
  %2 = alloca ptr, align 8
  %3 = alloca float, align 4
  store ptr %0, ptr %2, align 8, !tbaa !38
  %4 = load ptr, ptr %2, align 8
  call void @llvm.lifetime.start.p0(i64 4, ptr %3) #13
  %5 = getelementptr inbounds nuw %class.btQuadWord, ptr %4, i32 0, i32 0
  %6 = getelementptr inbounds [4 x float], ptr %5, i64 0, i64 3
  %7 = load float, ptr %6, align 4, !tbaa !50
  %8 = call noundef float @_Z6btAcosf(float noundef %7)
  %9 = fmul float 2.000000e+00, %8
  store float %9, ptr %3, align 4, !tbaa !50
  %10 = load float, ptr %3, align 4, !tbaa !50
  call void @llvm.lifetime.end.p0(i64 4, ptr %3) #13
  ret float %10
}

; Function Attrs: mustprogress uwtable
define dso_local void @_ZN21btConeTwistConstraint21computeTwistLimitInfoERK12btQuaternionRfR9btVector3(ptr noundef nonnull align 8 dereferenceable(632) %0, ptr noundef nonnull align 4 dereferenceable(16) %1, ptr noundef nonnull align 4 dereferenceable(4) %2, ptr noundef nonnull align 4 dereferenceable(16) %3) #7 align 2 {
  %5 = alloca ptr, align 8
  %6 = alloca ptr, align 8
  %7 = alloca ptr, align 8
  %8 = alloca ptr, align 8
  %9 = alloca %class.btQuaternion, align 4
  %10 = alloca %class.btQuaternion, align 4
  %11 = alloca %class.btVector3, align 4
  store ptr %0, ptr %5, align 8, !tbaa !12
  store ptr %1, ptr %6, align 8, !tbaa !38
  store ptr %2, ptr %7, align 8, !tbaa !51
  store ptr %3, ptr %8, align 8, !tbaa !36
  call void @llvm.lifetime.start.p0(i64 16, ptr %9) #13
  %12 = load ptr, ptr %6, align 8, !tbaa !38
  call void @llvm.memcpy.p0.p0.i64(ptr align 4 %9, ptr align 4 %12, i64 16, i1 false)
  %13 = load ptr, ptr %6, align 8, !tbaa !38
  %14 = call noundef float @_ZNK12btQuaternion8getAngleEv(ptr noundef nonnull align 4 dereferenceable(16) %13)
  %15 = load ptr, ptr %7, align 8, !tbaa !51
  store float %14, ptr %15, align 4, !tbaa !50
  %16 = load ptr, ptr %7, align 8, !tbaa !51
  %17 = load float, ptr %16, align 4, !tbaa !50
  %18 = fcmp ogt float %17, 0x400921FB60000000
  br i1 %18, label %19, label %30

19:                                               ; preds = %4
  call void @llvm.lifetime.start.p0(i64 16, ptr %10) #13
  %20 = load ptr, ptr %6, align 8, !tbaa !38
  %21 = call { <2 x float>, <2 x float> } @_ZNK12btQuaternionngEv(ptr noundef nonnull align 4 dereferenceable(16) %20)
  %22 = getelementptr inbounds nuw %class.btQuaternion, ptr %10, i32 0, i32 0
  %23 = getelementptr inbounds nuw %class.btQuadWord, ptr %22, i32 0, i32 0
  %24 = getelementptr inbounds nuw { <2 x float>, <2 x float> }, ptr %23, i32 0, i32 0
  %25 = extractvalue { <2 x float>, <2 x float> } %21, 0
  store <2 x float> %25, ptr %24, align 4
  %26 = getelementptr inbounds nuw { <2 x float>, <2 x float> }, ptr %23, i32 0, i32 1
  %27 = extractvalue { <2 x float>, <2 x float> } %21, 1
  store <2 x float> %27, ptr %26, align 4
  call void @llvm.memcpy.p0.p0.i64(ptr align 4 %9, ptr align 4 %10, i64 16, i1 false)
  call void @llvm.lifetime.end.p0(i64 16, ptr %10) #13
  %28 = call noundef float @_ZNK12btQuaternion8getAngleEv(ptr noundef nonnull align 4 dereferenceable(16) %9)
  %29 = load ptr, ptr %7, align 8, !tbaa !51
  store float %28, ptr %29, align 4, !tbaa !50
  br label %30

30:                                               ; preds = %19, %4
  %31 = load ptr, ptr %7, align 8, !tbaa !51
  %32 = load float, ptr %31, align 4, !tbaa !50
  %33 = fcmp olt float %32, 0.000000e+00
  br i1 %33, label %34, label %35

34:                                               ; preds = %30
  br label %35

35:                                               ; preds = %34, %30
  call void @llvm.lifetime.start.p0(i64 16, ptr %11) #13
  %36 = call noundef nonnull align 4 dereferenceable(4) ptr @_ZNK10btQuadWord1xEv(ptr noundef nonnull align 4 dereferenceable(16) %9)
  %37 = call noundef nonnull align 4 dereferenceable(4) ptr @_ZNK10btQuadWord1yEv(ptr noundef nonnull align 4 dereferenceable(16) %9)
  %38 = call noundef nonnull align 4 dereferenceable(4) ptr @_ZNK10btQuadWord1zEv(ptr noundef nonnull align 4 dereferenceable(16) %9)
  call void @_ZN9btVector3C2ERKfS1_S1_(ptr noundef nonnull align 4 dereferenceable(16) %11, ptr noundef nonnull align 4 dereferenceable(4) %36, ptr noundef nonnull align 4 dereferenceable(4) %37, ptr noundef nonnull align 4 dereferenceable(4) %38)
  %39 = load ptr, ptr %8, align 8, !tbaa !36
  call void @llvm.memcpy.p0.p0.i64(ptr align 4 %39, ptr align 4 %11, i64 16, i1 false), !tbaa.struct !35
  call void @llvm.lifetime.end.p0(i64 16, ptr %11) #13
  %40 = load ptr, ptr %7, align 8, !tbaa !51
  %41 = load float, ptr %40, align 4, !tbaa !50
  %42 = fcmp ogt float %41, 0x3E80000000000000
  br i1 %42, label %43, label %46

43:                                               ; preds = %35
  %44 = load ptr, ptr %8, align 8, !tbaa !36
  %45 = call noundef nonnull align 4 dereferenceable(16) ptr @_ZN9btVector39normalizeEv(ptr noundef nonnull align 4 dereferenceable(16) %44)
  br label %46

46:                                               ; preds = %43, %35
  call void @llvm.lifetime.end.p0(i64 16, ptr %9) #13
  ret void
}