; Function Attrs: mustprogress nofree nounwind willreturn memory(write, argmem: readwrite) uwtable
define dso_local void @_ZN21btConeTwistConstraint21computeTwistLimitInfoERK12btQuaternionRfR9btVector3(ptr noundef nonnull readnone align 8 captures(none) dereferenceable(632) %0, ptr noundef nonnull readonly align 4 captures(none) dereferenceable(16) %1, ptr noundef nonnull align 4 captures(none) dereferenceable(4) initializes((0, 4)) %2, ptr noundef nonnull writeonly align 4 captures(none) dereferenceable(16) initializes((0, 16)) %3) local_unnamed_addr #11 align 2 {
  %.sroa.013.0.copyload = load <2 x float>, ptr %1, align 4
  %.sroa.614.0..sroa_idx = getelementptr inbounds nuw i8, ptr %1, i64 8
  %.sroa.614.0.copyload = load <2 x float>, ptr %.sroa.614.0..sroa_idx, align 4
  %5 = extractelement <2 x float> %.sroa.614.0.copyload, i64 1
  %6 = fcmp olt float %5, -1.000000e+00
  %.0.i.i = select i1 %6, float -1.000000e+00, float %5
  %7 = fcmp ogt float %.0.i.i, 1.000000e+00
  %.1.i.i = select i1 %7, float 1.000000e+00, float %.0.i.i
  %8 = tail call noundef float @acosf(float noundef %.1.i.i) #22, !tbaa !67
  %9 = fmul float %8, 2.000000e+00
  store float %9, ptr %2, align 4, !tbaa !51
  %10 = fcmp ogt float %9, 0x400921FB60000000
  br i1 %10, label %11, label %26

11:                                               ; preds = %4
  %12 = getelementptr inbounds nuw i8, ptr %1, i64 12
  %13 = load float, ptr %1, align 4, !tbaa !51
  %14 = fneg float %13
  %15 = getelementptr inbounds nuw i8, ptr %1, i64 4
  %16 = load float, ptr %15, align 4, !tbaa !51
  %17 = fneg float %16
  %18 = load float, ptr %.sroa.614.0..sroa_idx, align 4, !tbaa !51
  %19 = fneg float %18
  %20 = load float, ptr %12, align 4, !tbaa !51
  %21 = fneg float %20
  %.sroa.0.0.vec.insert.i = insertelement <2 x float> poison, float %14, i64 0
  %.sroa.0.4.vec.insert.i = insertelement <2 x float> %.sroa.0.0.vec.insert.i, float %17, i64 1
  %.sroa.3.8.vec.insert.i = insertelement <2 x float> poison, float %19, i64 0
  %.sroa.3.12.vec.insert.i = insertelement <2 x float> %.sroa.3.8.vec.insert.i, float %21, i64 1
  %22 = fcmp olt float %21, -1.000000e+00
  %.0.i.i10 = select i1 %22, float -1.000000e+00, float %21
  %23 = fcmp ogt float %.0.i.i10, 1.000000e+00
  %.1.i.i11 = select i1 %23, float 1.000000e+00, float %.0.i.i10
  %24 = tail call noundef float @acosf(float noundef %.1.i.i11) #22, !tbaa !67
  %25 = fmul float %24, 2.000000e+00
  store float %25, ptr %2, align 4, !tbaa !51
  br label %26

26:                                               ; preds = %11, %4
  %.sroa.013.0 = phi <2 x float> [ %.sroa.0.4.vec.insert.i, %11 ], [ %.sroa.013.0.copyload, %4 ]
  %.sroa.614.0 = phi <2 x float> [ %.sroa.3.12.vec.insert.i, %11 ], [ %.sroa.614.0.copyload, %4 ]
  %.sroa.013.0.vec.extract = extractelement <2 x float> %.sroa.013.0, i64 0
  %.sroa.013.4.vec.extract = extractelement <2 x float> %.sroa.013.0, i64 1
  %.sroa.614.8.vec.extract = extractelement <2 x float> %.sroa.614.0, i64 0
  store float %.sroa.013.0.vec.extract, ptr %3, align 4
  %.sroa.4.0..sroa_idx12 = getelementptr inbounds nuw i8, ptr %3, i64 4
  store float %.sroa.013.4.vec.extract, ptr %.sroa.4.0..sroa_idx12, align 4
  %.sroa.5.0..sroa_idx = getelementptr inbounds nuw i8, ptr %3, i64 8
  store float %.sroa.614.8.vec.extract, ptr %.sroa.5.0..sroa_idx, align 4
  %.sroa.6.0..sroa_idx = getelementptr inbounds nuw i8, ptr %3, i64 12
  store float 0.000000e+00, ptr %.sroa.6.0..sroa_idx, align 4, !tbaa !8
  %27 = load float, ptr %2, align 4, !tbaa !51
  %28 = fcmp ogt float %27, 0x3E80000000000000
  br i1 %28, label %29, label %37

29:                                               ; preds = %26
  %30 = fmul float %.sroa.013.4.vec.extract, %.sroa.013.4.vec.extract
  %31 = tail call float @llvm.fmuladd.f32(float %.sroa.013.0.vec.extract, float %.sroa.013.0.vec.extract, float %30)
  %32 = tail call noundef float @llvm.fmuladd.f32(float %.sroa.614.8.vec.extract, float %.sroa.614.8.vec.extract, float %31)
  %sqrt.i.i = tail call noundef float @llvm.sqrt.f32(float %32)
  %33 = fdiv float 1.000000e+00, %sqrt.i.i
  %34 = fmul float %.sroa.013.0.vec.extract, %33
  store float %34, ptr %3, align 4, !tbaa !51
  %35 = fmul float %.sroa.013.4.vec.extract, %33
  store float %35, ptr %.sroa.4.0..sroa_idx12, align 4, !tbaa !51
  %36 = fmul float %.sroa.614.8.vec.extract, %33
  store float %36, ptr %.sroa.5.0..sroa_idx, align 4, !tbaa !51
  br label %37

37:                                               ; preds = %29, %26
  ret void
}